; Function Attrs: mustprogress nofree norecurse nosync nounwind memory(readwrite, inaccessiblemem: none) uwtable
define hidden void @_ZN3sat10simplifier10unmark_allERKNS_6clauseE(ptr nocapture noundef nonnull readonly align 8 dereferenceable(288) %this, ptr noundef nonnull readonly align 4 dereferenceable(20) %c) local_unnamed_addr #5 align 2 {
entry:
  %m_size.i = getelementptr inbounds i8, ptr %c, i64 4
  %0 = load i32, ptr %m_size.i, align 4
  %idx.ext.i = zext i32 %0 to i64
  %add.ptr.i.idx = shl nuw nsw i64 %idx.ext.i, 2
  %1 = getelementptr i8, ptr %c, i64 %add.ptr.i.idx
  %add.ptr.i.ptr = getelementptr i8, ptr %1, i64 20
  %cmp.not5 = icmp eq i32 %0, 0
  br i1 %cmp.not5, label %for.end, label %for.body.lr.ph

for.body.lr.ph:                                   ; preds = %entry
  %m_lits.i.ptr = getelementptr inbounds i8, ptr %c, i64 20
  %m_visited.i = getelementptr inbounds i8, ptr %this, i64 96
  br label %for.body

for.body:                                         ; preds = %for.body.lr.ph, %for.body
  %__begin1.06 = phi ptr [ %m_lits.i.ptr, %for.body.lr.ph ], [ %incdec.ptr, %for.body ]
  %l.sroa.0.0.copyload = load i32, ptr %__begin1.06, align 4
  %2 = load ptr, ptr %m_visited.i, align 8
  %idxprom.i.i = zext i32 %l.sroa.0.0.copyload to i64
  %arrayidx.i.i = getelementptr inbounds i8, ptr %2, i64 %idxprom.i.i
  store i8 0, ptr %arrayidx.i.i, align 1
  %incdec.ptr = getelementptr inbounds i8, ptr %__begin1.06, i64 4
  %cmp.not = icmp eq ptr %incdec.ptr, %add.ptr.i.ptr
  br i1 %cmp.not, label %for.end, label %for.body

for.end:                                          ; preds = %for.body, %entry
  ret void
}